; Function Attrs: mustprogress nounwind uwtable
define hidden noundef zeroext i1 @_ZN14LibraryCallKit26inline_math_multiplyExactLEv(ptr noundef nonnull align 8 dereferenceable(108) %0) local_unnamed_addr #0 align 2 {
  %2 = getelementptr inbounds i8, ptr %0, i64 40
  %3 = load ptr, ptr %2, align 8
  %4 = getelementptr inbounds i8, ptr %3, i64 56
  %5 = load ptr, ptr %4, align 8
  %6 = getelementptr inbounds i8, ptr %5, i64 16
  %7 = load i32, ptr %6, align 8
  %8 = getelementptr inbounds i8, ptr %5, i64 32
  %9 = load i32, ptr %8, align 8
  %10 = add i32 %9, %7
  %11 = getelementptr inbounds i8, ptr %3, i64 8
  %12 = load ptr, ptr %11, align 8
  %13 = zext i32 %10 to i64
  %14 = getelementptr inbounds ptr, ptr %12, i64 %13
  %15 = load ptr, ptr %14, align 8
  %16 = add i32 %10, 2
  %17 = zext i32 %16 to i64
  %18 = getelementptr inbounds ptr, ptr %12, i64 %17
  %19 = load ptr, ptr %18, align 8
  %20 = tail call noundef zeroext i1 @_ZN14LibraryCallKit20inline_math_overflowI16OverflowMulLNodeEEbP4NodeS3_(ptr noundef nonnull align 8 dereferenceable(108) %0, ptr noundef %15, ptr noundef %19)
  ret i1 %20
}